; Function Attrs: nounwind uwtable
define internal ptr @memory_shape_get(ptr noundef readonly captures(none) %0, ptr readnone captures(none) %1) #0 {
  %3 = getelementptr inbounds nuw i8, ptr %0, i64 40
  %4 = load i32, ptr %3, align 8, !tbaa !109
  %5 = and i32 %4, 1
  %.not = icmp eq i32 %5, 0
  br i1 %.not, label %6, label %12

6:                                                ; preds = %2
  %7 = getelementptr inbounds nuw i8, ptr %0, i64 24
  %8 = load ptr, ptr %7, align 8, !tbaa !105
  %9 = getelementptr inbounds nuw i8, ptr %8, i64 16
  %10 = load i32, ptr %9, align 8, !tbaa !4
  %11 = and i32 %10, 1
  %.not6 = icmp eq i32 %11, 0
  br i1 %.not6, label %14, label %12

12:                                               ; preds = %6, %2
  %13 = load ptr, ptr @PyExc_ValueError, align 8, !tbaa !104
  tail call void @PyErr_SetString(ptr noundef %13, ptr noundef nonnull @.str.8) #14
  br label %_IntTupleFromSsizet.exit

14:                                               ; preds = %6
  %15 = getelementptr inbounds nuw i8, ptr %0, i64 92
  %16 = load i32, ptr %15, align 4, !tbaa !111
  %17 = getelementptr inbounds nuw i8, ptr %0, i64 104
  %18 = load ptr, ptr %17, align 8, !tbaa !112
  %19 = icmp eq ptr %18, null
  br i1 %19, label %20, label %22

20:                                               ; preds = %14
  %21 = tail call ptr @PyTuple_New(i64 noundef 0) #14
  br label %_IntTupleFromSsizet.exit

22:                                               ; preds = %14
  %23 = sext i32 %16 to i64
  %24 = tail call ptr @PyTuple_New(i64 noundef %23) #14
  %.not.i = icmp eq ptr %24, null
  br i1 %.not.i, label %_IntTupleFromSsizet.exit, label %.preheader.i

.preheader.i:                                     ; preds = %22
  %25 = icmp sgt i32 %16, 0
  br i1 %25, label %.lr.ph.i, label %_IntTupleFromSsizet.exit

.lr.ph.i:                                         ; preds = %.preheader.i
  %26 = getelementptr inbounds nuw i8, ptr %24, i64 24
  %wide.trip.count.i = zext nneg i32 %16 to i64
  br label %27

27:                                               ; preds = %37, %.lr.ph.i
  %indvars.iv.i = phi i64 [ 0, %.lr.ph.i ], [ %indvars.iv.next.i, %37 ]
  %28 = getelementptr i64, ptr %18, i64 %indvars.iv.i
  %29 = load i64, ptr %28, align 8, !tbaa !124
  %30 = tail call ptr @PyLong_FromSsize_t(i64 noundef %29) #14
  %.not18.i = icmp eq ptr %30, null
  br i1 %.not18.i, label %31, label %37

31:                                               ; preds = %27
  %32 = load i32, ptr %24, align 8, !tbaa !102
  %.not.i.i = icmp sgt i32 %32, -1
  br i1 %.not.i.i, label %33, label %_IntTupleFromSsizet.exit

33:                                               ; preds = %31
  %34 = add nsw i32 %32, -1
  store i32 %34, ptr %24, align 8, !tbaa !102
  %35 = icmp eq i32 %34, 0
  br i1 %35, label %36, label %_IntTupleFromSsizet.exit

36:                                               ; preds = %33
  tail call void @_Py_Dealloc(ptr noundef nonnull %24) #14
  br label %_IntTupleFromSsizet.exit

37:                                               ; preds = %27
  %38 = getelementptr [1 x ptr], ptr %26, i64 0, i64 %indvars.iv.i
  store ptr %30, ptr %38, align 8, !tbaa !104
  %indvars.iv.next.i = add nuw nsw i64 %indvars.iv.i, 1
  %exitcond.not.i = icmp eq i64 %indvars.iv.next.i, %wide.trip.count.i
  br i1 %exitcond.not.i, label %_IntTupleFromSsizet.exit, label %27, !llvm.loop !189

_IntTupleFromSsizet.exit:                         ; preds = %37, %36, %33, %31, %.preheader.i, %22, %20, %12
  %.0 = phi ptr [ null, %12 ], [ %21, %20 ], [ null, %22 ], [ null, %31 ], [ null, %33 ], [ null, %36 ], [ %24, %.preheader.i ], [ %24, %37 ]
  ret ptr %.0
}